target datalayout = "e-m:e-p270:32:32-p271:32:32-p272:64:64-i64:64-i128:128-f80:128-n8:16:32:64-S128"
target triple = "x86_64-unknown-linux-gnu"

%"class.google::protobuf::Message" = type { %"class.google::protobuf::MessageLite" }
%"class.google::protobuf::MessageLite" = type { ptr, %"class.google::protobuf::internal::InternalMetadata" }
%"class.google::protobuf::internal::InternalMetadata" = type { ptr }
%"class.google::protobuf::internal::CachedSize" = type { %"struct.std::atomic" }
%"struct.std::atomic" = type { %"struct.std::__atomic_base" }
%"struct.std::__atomic_base" = type { i32 }
%"class.conformance::JspbEncodingConfig" = type { %"class.google::protobuf::Message", i8, %"class.google::protobuf::internal::CachedSize" }
%"class.google::protobuf::Arena" = type { %"class.google::protobuf::internal::ArenaImpl", ptr, ptr, ptr, ptr }
%"class.google::protobuf::internal::ArenaImpl" = type { %"struct.std::atomic.11", %"struct.std::atomic.11", %"struct.std::atomic.13", ptr, i64, %"struct.google::protobuf::internal::ArenaImpl::Options" }
%"struct.std::atomic.11" = type { %"struct.std::__atomic_base.12" }
%"struct.std::__atomic_base.12" = type { ptr }
%"struct.std::atomic.13" = type { %"struct.std::__atomic_base.14" }
%"struct.std::__atomic_base.14" = type { i64 }
%"struct.google::protobuf::internal::ArenaImpl::Options" = type { i64, i64, ptr, i64, ptr, ptr }

@_ZTIN11conformance18JspbEncodingConfigE = dso_local constant { ptr, ptr, ptr } { ptr getelementptr inbounds (ptr, ptr @_ZTVN10__cxxabiv120__si_class_type_infoE, i64 2), ptr @_ZTSN11conformance18JspbEncodingConfigE, ptr @_ZTIN6google8protobuf7MessageE }, align 8
@_ZTVN6google8protobuf7MessageE = external unnamed_addr constant { [22 x ptr] }, align 8
@_ZTVN6google8protobuf11MessageLiteE = external unnamed_addr constant { [16 x ptr] }, align 8
@_ZN11conformance18JspbEncodingConfigC1EPN6google8protobuf5ArenaE = dso_local unnamed_addr alias void (ptr, ptr), ptr @_ZN11conformance18JspbEncodingConfigC2EPN6google8protobuf5ArenaE

; Function Attrs: mustprogress nounwind uwtable
define linkonce_odr dso_local void @_ZNSt13__atomic_baseIiEC2Ei(ptr noundef nonnull align 4 dereferenceable(4) %this, i32 noundef %__i) unnamed_addr #5 comdat align 2 {
entry:
  %this.addr = alloca ptr, align 8
  %__i.addr = alloca i32, align 4
  store ptr %this, ptr %this.addr, align 8
  store i32 %__i, ptr %__i.addr, align 4
  %this1 = load ptr, ptr %this.addr, align 8
  %_M_i = getelementptr inbounds %"struct.std::__atomic_base", ptr %this1, i32 0, i32 0
  %0 = load i32, ptr %__i.addr, align 4
  store i32 %0, ptr %_M_i, align 4
  ret void
}

; Function Attrs: mustprogress nounwind uwtable
define linkonce_odr dso_local void @_ZN6google8protobuf8internal16InternalMetadataC2EPNS0_5ArenaE(ptr noundef nonnull align 8 dereferenceable(8) %this, ptr noundef %arena) unnamed_addr #5 comdat align 2 {
entry:
  %this.addr = alloca ptr, align 8
  %arena.addr = alloca ptr, align 8
  store ptr %this, ptr %this.addr, align 8
  store ptr %arena, ptr %arena.addr, align 8
  %this1 = load ptr, ptr %this.addr, align 8
  %ptr_ = getelementptr inbounds %"class.google::protobuf::internal::InternalMetadata", ptr %this1, i32 0, i32 0
  %0 = load ptr, ptr %arena.addr, align 8
  store ptr %0, ptr %ptr_, align 8
  ret void
}

; Function Attrs: mustprogress nounwind uwtable
define linkonce_odr dso_local void @_ZN6google8protobuf11MessageLiteD2Ev(ptr noundef nonnull align 8 dereferenceable(16) %this) unnamed_addr #5 comdat align 2 {
entry:
  %this.addr = alloca ptr, align 8
  store ptr %this, ptr %this.addr, align 8
  ret void
}

; Function Attrs: mustprogress nounwind uwtable
define linkonce_odr dso_local void @_ZNSt6atomicIiEC2Ei(ptr noundef nonnull align 4 dereferenceable(4) %this, i32 noundef %__i) unnamed_addr #5 comdat align 2 {
entry:
  %this.addr = alloca ptr, align 8
  %__i.addr = alloca i32, align 4
  store ptr %this, ptr %this.addr, align 8
  store i32 %__i, ptr %__i.addr, align 4
  %this1 = load ptr, ptr %this.addr, align 8
  %0 = load i32, ptr %__i.addr, align 4
  call void @_ZNSt13__atomic_baseIiEC2Ei(ptr noundef nonnull align 4 dereferenceable(4) %this1, i32 noundef %0) #3
  ret void
}

; Function Attrs: mustprogress uwtable
define linkonce_odr dso_local void @_ZN6google8protobuf11MessageLiteC2EPNS0_5ArenaE(ptr noundef nonnull align 8 dereferenceable(16) %this, ptr noundef %arena) unnamed_addr #4 comdat align 2 {
entry:
  %this.addr = alloca ptr, align 8
  %arena.addr = alloca ptr, align 8
  store ptr %this, ptr %this.addr, align 8
  store ptr %arena, ptr %arena.addr, align 8
  %this1 = load ptr, ptr %this.addr, align 8
  store ptr getelementptr inbounds ({ [16 x ptr] }, ptr @_ZTVN6google8protobuf11MessageLiteE, i32 0, i32 0, i32 2), ptr %this1, align 8
  %_internal_metadata_ = getelementptr inbounds %"class.google::protobuf::MessageLite", ptr %this1, i32 0, i32 1
  %0 = load ptr, ptr %arena.addr, align 8
  call void @_ZN6google8protobuf8internal16InternalMetadataC2EPNS0_5ArenaE(ptr noundef nonnull align 8 dereferenceable(8) %_internal_metadata_, ptr noundef %0)
  ret void
}

; Function Attrs: mustprogress nounwind uwtable
define linkonce_odr dso_local void @_ZN6google8protobuf7MessageD2Ev(ptr noundef nonnull align 8 dereferenceable(16) %this) unnamed_addr #5 comdat align 2 {
entry:
  %this.addr = alloca ptr, align 8
  store ptr %this, ptr %this.addr, align 8
  %this1 = load ptr, ptr %this.addr, align 8
  call void @_ZN6google8protobuf11MessageLiteD2Ev(ptr noundef nonnull align 8 dereferenceable(16) %this1) #3
  ret void
}

; Function Attrs: mustprogress nounwind uwtable
define linkonce_odr dso_local void @_ZN11conformance18JspbEncodingConfig17RegisterArenaDtorEPN6google8protobuf5ArenaE(ptr noundef nonnull align 8 dereferenceable(24) %this, ptr noundef %0) #5 comdat align 2 {
entry:
  %this.addr = alloca ptr, align 8
  %.addr = alloca ptr, align 8
  store ptr %this, ptr %this.addr, align 8
  store ptr %0, ptr %.addr, align 8
  ret void
}

; Function Attrs: mustprogress nounwind uwtable
define linkonce_odr dso_local void @_ZN11conformance18JspbEncodingConfig10SharedCtorEv(ptr noundef nonnull align 8 dereferenceable(24) %this) #5 comdat align 2 {
entry:
  %this.addr = alloca ptr, align 8
  store ptr %this, ptr %this.addr, align 8
  %this1 = load ptr, ptr %this.addr, align 8
  %use_jspb_array_any_format_ = getelementptr inbounds %"class.conformance::JspbEncodingConfig", ptr %this1, i32 0, i32 1
  store i8 0, ptr %use_jspb_array_any_format_, align 8
  ret void
}

; Function Attrs: mustprogress nounwind uwtable
define linkonce_odr dso_local void @_ZN6google8protobuf8internal10CachedSizeC2Ev(ptr noundef nonnull align 4 dereferenceable(4) %this) unnamed_addr #5 comdat align 2 {
entry:
  %this.addr = alloca ptr, align 8
  store ptr %this, ptr %this.addr, align 8
  %this1 = load ptr, ptr %this.addr, align 8
  %size_ = getelementptr inbounds %"class.google::protobuf::internal::CachedSize", ptr %this1, i32 0, i32 0
  call void @_ZNSt6atomicIiEC2Ei(ptr noundef nonnull align 4 dereferenceable(4) %size_, i32 noundef 0) #3
  ret void
}

; Function Attrs: mustprogress uwtable
define linkonce_odr dso_local void @_ZN6google8protobuf7MessageC2EPNS0_5ArenaE(ptr noundef nonnull align 8 dereferenceable(16) %this, ptr noundef %arena) unnamed_addr #4 comdat align 2 {
entry:
  %this.addr = alloca ptr, align 8
  %arena.addr = alloca ptr, align 8
  store ptr %this, ptr %this.addr, align 8
  store ptr %arena, ptr %arena.addr, align 8
  %this1 = load ptr, ptr %this.addr, align 8
  %0 = load ptr, ptr %arena.addr, align 8
  call void @_ZN6google8protobuf11MessageLiteC2EPNS0_5ArenaE(ptr noundef nonnull align 8 dereferenceable(16) %this1, ptr noundef %0)
  store ptr getelementptr inbounds ({ [22 x ptr] }, ptr @_ZTVN6google8protobuf7MessageE, i32 0, i32 0, i32 2), ptr %this1, align 8
  ret void
}

; Function Attrs: mustprogress uwtable
define dso_local void @_ZN11conformance18JspbEncodingConfigC2EPN6google8protobuf5ArenaE(ptr noundef nonnull align 8 dereferenceable(24) %this, ptr noundef %arena) unnamed_addr #4 align 2 personality ptr @__gxx_personality_v0 {
entry:
  %this.addr = alloca ptr, align 8
  %arena.addr = alloca ptr, align 8
  %exn.slot = alloca ptr, align 8
  %ehselector.slot = alloca i32, align 4
  store ptr %this, ptr %this.addr, align 8
  store ptr %arena, ptr %arena.addr, align 8
  %this1 = load ptr, ptr %this.addr, align 8
  %0 = load ptr, ptr %arena.addr, align 8
  call void @_ZN6google8protobuf7MessageC2EPNS0_5ArenaE(ptr noundef nonnull align 8 dereferenceable(16) %this1, ptr noundef %0)
  store ptr getelementptr inbounds ({ [22 x ptr] }, ptr @_ZTVN11conformance18JspbEncodingConfigE, i32 0, i32 0, i32 2), ptr %this1, align 8
  %_cached_size_ = getelementptr inbounds %"class.conformance::JspbEncodingConfig", ptr %this1, i32 0, i32 2
  call void @_ZN6google8protobuf8internal10CachedSizeC2Ev(ptr noundef nonnull align 4 dereferenceable(4) %_cached_size_) #3
  invoke void @_ZN11conformance18JspbEncodingConfig10SharedCtorEv(ptr noundef nonnull align 8 dereferenceable(24) %this1)
          to label %invoke.cont unwind label %lpad

invoke.cont:                                      ; preds = %entry
  %1 = load ptr, ptr %arena.addr, align 8
  invoke void @_ZN11conformance18JspbEncodingConfig17RegisterArenaDtorEPN6google8protobuf5ArenaE(ptr noundef nonnull align 8 dereferenceable(24) %this1, ptr noundef %1)
          to label %invoke.cont2 unwind label %lpad

invoke.cont2:                                     ; preds = %invoke.cont
  ret void

lpad:                                             ; preds = %invoke.cont, %entry
  %2 = landingpad { ptr, i32 }
          cleanup
  %3 = extractvalue { ptr, i32 } %2, 0
  store ptr %3, ptr %exn.slot, align 8
  %4 = extractvalue { ptr, i32 } %2, 1
  store i32 %4, ptr %ehselector.slot, align 4
  call void @_ZN6google8protobuf7MessageD2Ev(ptr noundef nonnull align 8 dereferenceable(16) %this1) #3
  br label %eh.resume

eh.resume:                                        ; preds = %lpad
  %exn = load ptr, ptr %exn.slot, align 8
  %sel = load i32, ptr %ehselector.slot, align 4
  %lpad.val = insertvalue { ptr, i32 } poison, ptr %exn, 0
  %lpad.val3 = insertvalue { ptr, i32 } %lpad.val, i32 %sel, 1
  resume { ptr, i32 } %lpad.val3
}

; Function Attrs: mustprogress uwtable
define linkonce_odr dso_local noundef ptr @_ZN6google8protobuf5Arena14InternalHelperIN11conformance18JspbEncodingConfigEE9ConstructIJPS1_EEEPS4_PvDpOT_(ptr noundef %ptr, ptr noundef nonnull align 8 dereferenceable(8) %args) #4 comdat align 2 {
entry:
  %ptr.addr = alloca ptr, align 8
  %args.addr = alloca ptr, align 8
  store ptr %ptr, ptr %ptr.addr, align 8
  store ptr %args, ptr %args.addr, align 8
  %0 = load ptr, ptr %ptr.addr, align 8
  %1 = load ptr, ptr %args.addr, align 8
  %2 = load ptr, ptr %1, align 8
  call void @_ZN11conformance18JspbEncodingConfigC1EPN6google8protobuf5ArenaE(ptr noundef nonnull align 8 dereferenceable(24) %0, ptr noundef %2)
  ret ptr %0
}

; Function Attrs: mustprogress uwtable
define linkonce_odr dso_local void @_ZNK6google8protobuf5Arena9AllocHookEPKSt9type_infom(ptr noundef nonnull align 8 dereferenceable(120) %this, ptr noundef %allocated_type, i64 noundef %n) #4 comdat align 2 {
entry:
  %this.addr = alloca ptr, align 8
  %allocated_type.addr = alloca ptr, align 8
  %n.addr = alloca i64, align 8
  store ptr %this, ptr %this.addr, align 8
  store ptr %allocated_type, ptr %allocated_type.addr, align 8
  store i64 %n, ptr %n.addr, align 8
  %this1 = load ptr, ptr %this.addr, align 8
  %hooks_cookie_ = getelementptr inbounds %"class.google::protobuf::Arena", ptr %this1, i32 0, i32 4
  %0 = load ptr, ptr %hooks_cookie_, align 8
  %cmp = icmp ne ptr %0, null
  br i1 %cmp, label %if.then, label %if.end

if.then:                                          ; preds = %entry
  %1 = load ptr, ptr %allocated_type.addr, align 8
  %2 = load i64, ptr %n.addr, align 8
  call void @_ZNK6google8protobuf5Arena17OnArenaAllocationEPKSt9type_infom(ptr noundef nonnull align 8 dereferenceable(120) %this1, ptr noundef %1, i64 noundef %2)
  br label %if.end

if.end:                                           ; preds = %if.then, %entry
  ret void
}

; Function Attrs: mustprogress nounwind uwtable
define linkonce_odr dso_local noundef i64 @_ZN6google8protobuf8internal10AlignUpTo8Em(i64 noundef %n) #5 comdat {
entry:
  %n.addr = alloca i64, align 8
  store i64 %n, ptr %n.addr, align 8
  %0 = load i64, ptr %n.addr, align 8
  %add = add i64 %0, 7
  %and = and i64 %add, -8
  ret i64 %and
}

; Function Attrs: mustprogress uwtable
define linkonce_odr dso_local void @_ZN11conformance18JspbEncodingConfigC2Ev(ptr noundef nonnull align 8 dereferenceable(24) %this) unnamed_addr #4 comdat align 2 {
entry:
  %this.addr = alloca ptr, align 8
  store ptr %this, ptr %this.addr, align 8
  %this1 = load ptr, ptr %this.addr, align 8
  call void @_ZN11conformance18JspbEncodingConfigC2EPN6google8protobuf5ArenaE(ptr noundef nonnull align 8 dereferenceable(24) %this1, ptr noundef null)
  ret void
}

; Function Attrs: mustprogress uwtable
define dso_local noundef ptr @_ZN6google8protobuf5Arena18CreateMaybeMessageIN11conformance18JspbEncodingConfigEJEEEPT_PS1_DpOT0_(ptr noundef %arena) #4 align 2 personality ptr @__gxx_personality_v0 {
entry:
  %retval.i2 = alloca ptr, align 8
  %this.addr.i3 = alloca ptr, align 8
  %skip_explicit_ownership.addr.i = alloca i8, align 1
  %n.i = alloca i64, align 8
  %this.addr.i = alloca ptr, align 8
  %ref.tmp.i = alloca ptr, align 8
  %retval.i = alloca ptr, align 8
  %arena.addr.i = alloca ptr, align 8
  %exn.slot.i = alloca ptr, align 8
  %ehselector.slot.i = alloca i32, align 4
  %arena.addr = alloca ptr, align 8
  store ptr %arena, ptr %arena.addr, align 8
  %0 = load ptr, ptr %arena.addr, align 8
  store ptr %0, ptr %arena.addr.i, align 8
  %1 = load ptr, ptr %arena.addr.i, align 8
  %cmp.i = icmp eq ptr %1, null
  br i1 %cmp.i, label %if.then.i, label %if.else.i

if.then.i:                                        ; preds = %entry
  %call.i = call noalias noundef nonnull ptr @_Znwm(i64 noundef 24) #16
  invoke void @_ZN11conformance18JspbEncodingConfigC2Ev(ptr noundef nonnull align 8 dereferenceable(24) %call.i)
          to label %invoke.cont.i unwind label %lpad.i

invoke.cont.i:                                    ; preds = %if.then.i
  store ptr %call.i, ptr %retval.i, align 8
  br label %_ZN6google8protobuf5Arena21CreateMessageInternalIN11conformance18JspbEncodingConfigEEEPT_PS1_.exit

lpad.i:                                           ; preds = %if.then.i
  %2 = landingpad { ptr, i32 }
          cleanup
  %3 = extractvalue { ptr, i32 } %2, 0
  store ptr %3, ptr %exn.slot.i, align 8
  %4 = extractvalue { ptr, i32 } %2, 1
  store i32 %4, ptr %ehselector.slot.i, align 4
  call void @_ZdlPv(ptr noundef %call.i) #15
  %exn.i = load ptr, ptr %exn.slot.i, align 8
  %sel.i = load i32, ptr %ehselector.slot.i, align 4
  %lpad.val.i = insertvalue { ptr, i32 } poison, ptr %exn.i, 0
  %lpad.val2.i = insertvalue { ptr, i32 } %lpad.val.i, i32 %sel.i, 1
  resume { ptr, i32 } %lpad.val2.i

if.else.i:                                        ; preds = %entry
  %5 = load ptr, ptr %arena.addr.i, align 8
  store ptr %5, ptr %this.addr.i, align 8
  %this1.i = load ptr, ptr %this.addr.i, align 8
  store ptr %this1.i, ptr %this.addr.i3, align 8
  store i8 1, ptr %skip_explicit_ownership.addr.i, align 1
  %this1.i4 = load ptr, ptr %this.addr.i3, align 8
  %call.i5 = call noundef i64 @_ZN6google8protobuf8internal10AlignUpTo8Em(i64 noundef 24)
  store i64 %call.i5, ptr %n.i, align 8
  %6 = load i64, ptr %n.i, align 8
  call void @_ZNK6google8protobuf5Arena9AllocHookEPKSt9type_infom(ptr noundef nonnull align 8 dereferenceable(120) %this1.i4, ptr noundef @_ZTIN11conformance18JspbEncodingConfigE, i64 noundef %6)
  %7 = load i8, ptr %skip_explicit_ownership.addr.i, align 1
  %tobool.i = trunc i8 %7 to i1
  br i1 %tobool.i, label %if.then.i7, label %if.else.i6

if.then.i7:                                       ; preds = %if.else.i
  %8 = load i64, ptr %n.i, align 8
  %call2.i8 = call noundef ptr @_ZN6google8protobuf5Arena21AllocateAlignedNoHookEm(ptr noundef nonnull align 8 dereferenceable(120) %this1.i4, i64 noundef %8)
  store ptr %call2.i8, ptr %retval.i2, align 8
  br label %_ZN6google8protobuf5Arena16AllocateInternalIN11conformance18JspbEncodingConfigEEEPvb.exit

if.else.i6:                                       ; preds = %if.else.i
  %9 = load i64, ptr %n.i, align 8
  %call3.i = call noundef ptr @_ZN6google8protobuf8internal9ArenaImpl28AllocateAlignedAndAddCleanupEmPFvPvE(ptr noundef nonnull align 8 dereferenceable(88) %this1.i4, i64 noundef %9, ptr noundef @_ZN6google8protobuf8internal21arena_destruct_objectIN11conformance18JspbEncodingConfigEEEvPv)
  store ptr %call3.i, ptr %retval.i2, align 8
  br label %_ZN6google8protobuf5Arena16AllocateInternalIN11conformance18JspbEncodingConfigEEEPvb.exit

_ZN6google8protobuf5Arena16AllocateInternalIN11conformance18JspbEncodingConfigEEEPvb.exit: ; preds = %if.else.i6, %if.then.i7
  %10 = load ptr, ptr %retval.i2, align 8
  store ptr %this1.i, ptr %ref.tmp.i, align 8
  %call2.i = call noundef ptr @_ZN6google8protobuf5Arena14InternalHelperIN11conformance18JspbEncodingConfigEE9ConstructIJPS1_EEEPS4_PvDpOT_(ptr noundef %10, ptr noundef nonnull align 8 dereferenceable(8) %ref.tmp.i)
  store ptr %call2.i, ptr %retval.i, align 8
  br label %_ZN6google8protobuf5Arena21CreateMessageInternalIN11conformance18JspbEncodingConfigEEEPT_PS1_.exit

_ZN6google8protobuf5Arena21CreateMessageInternalIN11conformance18JspbEncodingConfigEEEPT_PS1_.exit: ; preds = %_ZN6google8protobuf5Arena16AllocateInternalIN11conformance18JspbEncodingConfigEEEPvb.exit, %invoke.cont.i
  %11 = load ptr, ptr %retval.i, align 8
  ret ptr %11
}