; Function Attrs: mustprogress uwtable
define dso_local noundef ptr @_ZN6google8protobuf5Arena18CreateMaybeMessageIN11conformance18JspbEncodingConfigEJEEEPT_PS1_DpOT0_(ptr noundef %arena) local_unnamed_addr #3 align 2 personality ptr @__gxx_personality_v0 {
entry:
  %cmp.i = icmp eq ptr %arena, null
  br i1 %cmp.i, label %if.then.i, label %if.else.i

if.then.i:                                        ; preds = %entry
  %call.i = tail call noalias noundef nonnull dereferenceable(24) ptr @_Znwm(i64 noundef 24) #22
  br label %_ZN6google8protobuf5Arena21CreateMessageInternalIN11conformance18JspbEncodingConfigEEEPT_PS1_.exit

if.else.i:                                        ; preds = %entry
  %hooks_cookie_.i = getelementptr inbounds i8, ptr %arena, i64 112
  %0 = load ptr, ptr %hooks_cookie_.i, align 8
  %cmp.not.i = icmp eq ptr %0, null
  br i1 %cmp.not.i, label %_ZNK6google8protobuf5Arena9AllocHookEPKSt9type_infom.exit, label %if.then.i4

if.then.i4:                                       ; preds = %if.else.i
  tail call void @_ZNK6google8protobuf5Arena17OnArenaAllocationEPKSt9type_infom(ptr noundef nonnull align 8 dereferenceable(120) %arena, ptr noundef nonnull @_ZTIN11conformance18JspbEncodingConfigE, i64 noundef 24)
  br label %_ZNK6google8protobuf5Arena9AllocHookEPKSt9type_infom.exit

_ZNK6google8protobuf5Arena9AllocHookEPKSt9type_infom.exit: ; preds = %if.else.i, %if.then.i4
  %call2.i8 = tail call noundef ptr @_ZN6google8protobuf5Arena21AllocateAlignedNoHookEm(ptr noundef nonnull align 8 dereferenceable(120) %arena, i64 noundef 24)
  br label %_ZN6google8protobuf5Arena21CreateMessageInternalIN11conformance18JspbEncodingConfigEEEPT_PS1_.exit

_ZN6google8protobuf5Arena21CreateMessageInternalIN11conformance18JspbEncodingConfigEEEPT_PS1_.exit: ; preds = %if.then.i, %_ZNK6google8protobuf5Arena9AllocHookEPKSt9type_infom.exit
  %call.i.sink10 = phi ptr [ %call.i, %if.then.i ], [ %call2.i8, %_ZNK6google8protobuf5Arena9AllocHookEPKSt9type_infom.exit ]
  %.sink = phi ptr [ null, %if.then.i ], [ %arena, %_ZNK6google8protobuf5Arena9AllocHookEPKSt9type_infom.exit ]
  %_internal_metadata_.i.i.i.i = getelementptr inbounds i8, ptr %call.i.sink10, i64 8
  store ptr %.sink, ptr %_internal_metadata_.i.i.i.i, align 8
  store ptr getelementptr inbounds ({ [22 x ptr] }, ptr @_ZTVN11conformance18JspbEncodingConfigE, i64 0, i32 0, i64 2), ptr %call.i.sink10, align 8
  %_cached_size_.i.i = getelementptr inbounds i8, ptr %call.i.sink10, i64 20
  store i32 0, ptr %_cached_size_.i.i, align 4
  %use_jspb_array_any_format_.i.i.i = getelementptr inbounds i8, ptr %call.i.sink10, i64 16
  store i8 0, ptr %use_jspb_array_any_format_.i.i.i, align 8
  ret ptr %call.i.sink10
}